target datalayout = "e-m:e-p270:32:32-p271:32:32-p272:64:64-i64:64-i128:128-f80:128-n8:16:32:64-S128"
target triple = "x86_64-pc-linux-gnu"

%struct.VduseOps = type { ptr, ptr }

@stderr = external global ptr, align 8
@.str.6 = private unnamed_addr constant [29 x i8] c"Invalid parameter for vduse\0A\00", align 1
@.str.7 = private unnamed_addr constant [33 x i8] c"Failed to allocate vduse device\0A\00", align 1
@.str.10 = private unnamed_addr constant [36 x i8] c"Failed to init vduse device %s: %s\0A\00", align 1
@.str.38 = private unnamed_addr constant [3 x i8] c"..\00", align 1

; Function Attrs: inlinehint nounwind uwtable
define internal zeroext i1 @vduse_name_is_invalid(ptr noundef %0) #5 {
  %2 = alloca ptr, align 8
  store ptr %0, ptr %2, align 8
  %3 = load ptr, ptr %2, align 8
  %4 = call i64 @strlen(ptr noundef %3) #18
  %5 = icmp uge i64 %4, 256
  br i1 %5, label %10, label %6

6:                                                ; preds = %1
  %7 = load ptr, ptr %2, align 8
  %8 = call ptr @strstr(ptr noundef %7, ptr noundef @.str.38) #18
  %9 = icmp ne ptr %8, null
  br label %10

10:                                               ; preds = %6, %1
  %11 = phi i1 [ true, %1 ], [ %9, %6 ]
  ret i1 %11
}

; Function Attrs: nounwind uwtable
define dso_local ptr @vduse_dev_create_by_name(ptr noundef %0, i16 noundef zeroext %1, ptr noundef %2, ptr noundef %3) #0 {
  %5 = alloca ptr, align 8
  %6 = alloca ptr, align 8
  %7 = alloca i16, align 2
  %8 = alloca ptr, align 8
  %9 = alloca ptr, align 8
  %10 = alloca ptr, align 8
  %11 = alloca i32, align 4
  %12 = alloca i32, align 4
  store ptr %0, ptr %6, align 8
  store i16 %1, ptr %7, align 2
  store ptr %2, ptr %8, align 8
  store ptr %3, ptr %9, align 8
  call void @llvm.lifetime.start.p0(i64 8, ptr %10) #13
  store ptr null, ptr %10, align 8, !annotation !4
  call void @llvm.lifetime.start.p0(i64 4, ptr %11) #13
  store i32 0, ptr %11, align 4, !annotation !4
  %13 = load ptr, ptr %6, align 8
  %14 = icmp ne ptr %13, null
  br i1 %14, label %15, label %31

15:                                               ; preds = %4
  %16 = load ptr, ptr %6, align 8
  %17 = call zeroext i1 @vduse_name_is_invalid(ptr noundef %16)
  br i1 %17, label %31, label %18

18:                                               ; preds = %15
  %19 = load ptr, ptr %8, align 8
  %20 = icmp ne ptr %19, null
  br i1 %20, label %21, label %31

21:                                               ; preds = %18
  %22 = load ptr, ptr %8, align 8
  %23 = getelementptr inbounds nuw %struct.VduseOps, ptr %22, i32 0, i32 0
  %24 = load ptr, ptr %23, align 8
  %25 = icmp ne ptr %24, null
  br i1 %25, label %26, label %31

26:                                               ; preds = %21
  %27 = load ptr, ptr %8, align 8
  %28 = getelementptr inbounds nuw %struct.VduseOps, ptr %27, i32 0, i32 1
  %29 = load ptr, ptr %28, align 8
  %30 = icmp ne ptr %29, null
  br i1 %30, label %34, label %31

31:                                               ; preds = %26, %21, %18, %15, %4
  %32 = load ptr, ptr @stderr, align 8
  %33 = call i32 (ptr, ptr, ...) @fprintf(ptr noundef %32, ptr noundef @.str.6) #13
  store ptr null, ptr %5, align 8
  store i32 1, ptr %12, align 4
  br label %60

34:                                               ; preds = %26
  %35 = call noalias ptr @calloc(i64 noundef 8272, i64 noundef 1) #17
  store ptr %35, ptr %10, align 8
  %36 = load ptr, ptr %10, align 8
  %37 = icmp ne ptr %36, null
  br i1 %37, label %41, label %38

38:                                               ; preds = %34
  %39 = load ptr, ptr @stderr, align 8
  %40 = call i32 (ptr, ptr, ...) @fprintf(ptr noundef %39, ptr noundef @.str.7) #13
  store ptr null, ptr %5, align 8
  store i32 1, ptr %12, align 4
  br label %60

41:                                               ; preds = %34
  %42 = load ptr, ptr %10, align 8
  %43 = load ptr, ptr %6, align 8
  %44 = load i16, ptr %7, align 2
  %45 = load ptr, ptr %8, align 8
  %46 = load ptr, ptr %9, align 8
  %47 = call i32 @vduse_dev_init(ptr noundef %42, ptr noundef %43, i16 noundef zeroext %44, ptr noundef %45, ptr noundef %46)
  store i32 %47, ptr %11, align 4
  %48 = load i32, ptr %11, align 4
  %49 = icmp slt i32 %48, 0
  br i1 %49, label %50, label %58

50:                                               ; preds = %41
  %51 = load ptr, ptr @stderr, align 8
  %52 = load ptr, ptr %6, align 8
  %53 = load i32, ptr %11, align 4
  %54 = sub i32 0, %53
  %55 = call ptr @strerror(i32 noundef %54) #13
  %56 = call i32 (ptr, ptr, ...) @fprintf(ptr noundef %51, ptr noundef @.str.10, ptr noundef %52, ptr noundef %55) #13
  %57 = load ptr, ptr %10, align 8
  call void @free(ptr noundef %57) #13
  store ptr null, ptr %5, align 8
  store i32 1, ptr %12, align 4
  br label %60

58:                                               ; preds = %41
  %59 = load ptr, ptr %10, align 8
  store ptr %59, ptr %5, align 8
  store i32 1, ptr %12, align 4
  br label %60

60:                                               ; preds = %58, %50, %38, %31
  call void @llvm.lifetime.end.p0(i64 4, ptr %11) #13
  call void @llvm.lifetime.end.p0(i64 8, ptr %10) #13
  %61 = load ptr, ptr %5, align 8
  ret ptr %61
}