; Function Attrs: nounwind uwtable
define dso_local noundef ptr @vduse_dev_create_by_name(ptr noundef %0, i16 noundef zeroext %1, ptr noundef %2, ptr noundef %3) local_unnamed_addr #2 {
  %.not21 = icmp eq ptr %0, null
  br i1 %.not21, label %vduse_name_is_invalid.exit.thread, label %5

5:                                                ; preds = %4
  %6 = tail call i64 @strlen(ptr noundef nonnull readonly dereferenceable(1) %0) #27
  %7 = icmp ugt i64 %6, 255
  br i1 %7, label %vduse_name_is_invalid.exit.thread, label %vduse_name_is_invalid.exit

vduse_name_is_invalid.exit:                       ; preds = %5
  %8 = tail call ptr @strstr(ptr noundef nonnull readonly dereferenceable(1) %0, ptr noundef nonnull dereferenceable(1) @.str.38) #27
  %9 = icmp ne ptr %8, null
  %10 = icmp eq ptr %2, null
  %or.cond.not = or i1 %10, %9
  br i1 %or.cond.not, label %vduse_name_is_invalid.exit.thread, label %11

11:                                               ; preds = %vduse_name_is_invalid.exit
  %12 = load ptr, ptr %2, align 8
  %.not = icmp eq ptr %12, null
  br i1 %.not, label %vduse_name_is_invalid.exit.thread, label %13

13:                                               ; preds = %11
  %14 = getelementptr inbounds nuw i8, ptr %2, i64 8
  %15 = load ptr, ptr %14, align 8
  %.not23 = icmp eq ptr %15, null
  br i1 %.not23, label %vduse_name_is_invalid.exit.thread, label %18

vduse_name_is_invalid.exit.thread:                ; preds = %5, %13, %11, %vduse_name_is_invalid.exit, %4
  %16 = load ptr, ptr @stderr, align 8
  %17 = tail call i64 @fwrite(ptr nonnull @.str.6, i64 28, i64 1, ptr %16) #23
  br label %31

18:                                               ; preds = %13
  %19 = tail call noalias dereferenceable_or_null(8272) ptr @calloc(i64 noundef 8272, i64 noundef 1) #26
  %.not24 = icmp eq ptr %19, null
  br i1 %.not24, label %20, label %23

20:                                               ; preds = %18
  %21 = load ptr, ptr @stderr, align 8
  %22 = tail call i64 @fwrite(ptr nonnull @.str.7, i64 32, i64 1, ptr %21) #23
  br label %31

23:                                               ; preds = %18
  %24 = tail call fastcc i32 @vduse_dev_init(ptr noundef %19, ptr noundef %0, i16 noundef zeroext %1, ptr noundef %2, ptr noundef %3)
  %25 = icmp slt i32 %24, 0
  br i1 %25, label %26, label %31

26:                                               ; preds = %23
  %27 = load ptr, ptr @stderr, align 8
  %28 = sub i32 0, %24
  %29 = tail call ptr @strerror(i32 noundef %28) #20
  %30 = tail call i32 (ptr, ptr, ...) @fprintf(ptr noundef %27, ptr noundef nonnull @.str.10, ptr noundef nonnull %0, ptr noundef %29) #22
  tail call void @free(ptr noundef nonnull %19) #20
  br label %31

31:                                               ; preds = %23, %26, %20, %vduse_name_is_invalid.exit.thread
  %.0 = phi ptr [ null, %26 ], [ null, %20 ], [ null, %vduse_name_is_invalid.exit.thread ], [ %19, %23 ]
  ret ptr %.0
}